target datalayout = "e-m:e-p270:32:32-p271:32:32-p272:64:64-i64:64-i128:128-f80:128-n8:16:32:64-S128"
target triple = "x86_64-pc-linux-gnu"

%struct.Abc_Ntk_t_ = type { i32, i32, ptr, ptr, ptr, ptr, ptr, ptr, ptr, ptr, ptr, ptr, ptr, [11 x i32], i32, i32, i32, i32, ptr, i32, ptr, ptr, i32, i32, i32, double, i32, %struct.Vec_Int_t_, ptr, ptr, ptr, ptr, ptr, float, i32, ptr, ptr, ptr, ptr, ptr, ptr, ptr, ptr, ptr, ptr, ptr, ptr, ptr, ptr, ptr, ptr, ptr, ptr, ptr, ptr, ptr, ptr }
%struct.Vec_Int_t_ = type { i32, i32, ptr }
%struct.Vec_Att_t_ = type { i32, ptr, ptr, ptr, ptr, ptr }
%struct.Vec_Ptr_t_ = type { i32, i32, ptr }
%struct.Abc_Obj_t_ = type { ptr, ptr, i32, i32, %struct.Vec_Int_t_, %struct.Vec_Int_t_, %union.anon, %union.anon.0 }
%union.anon = type { ptr }
%union.anon.0 = type { ptr }

; Function Attrs: inlinehint nounwind uwtable
define internal void @Vec_AttGrow(ptr noundef %0, i32 noundef %1) #2 {
  %3 = alloca ptr, align 8
  %4 = alloca i32, align 4
  store ptr %0, ptr %3, align 8, !tbaa !8
  store i32 %1, ptr %4, align 4, !tbaa !27
  %5 = load ptr, ptr %3, align 8, !tbaa !8
  %6 = getelementptr inbounds nuw %struct.Vec_Att_t_, ptr %5, i32 0, i32 0
  %7 = load i32, ptr %6, align 8, !tbaa !34
  %8 = load i32, ptr %4, align 4, !tbaa !27
  %9 = icmp sge i32 %7, %8
  br i1 %9, label %10, label %11

10:                                               ; preds = %2
  br label %51

11:                                               ; preds = %2
  %12 = load ptr, ptr %3, align 8, !tbaa !8
  %13 = getelementptr inbounds nuw %struct.Vec_Att_t_, ptr %12, i32 0, i32 1
  %14 = load ptr, ptr %13, align 8, !tbaa !35
  %15 = icmp ne ptr %14, null
  br i1 %15, label %16, label %24

16:                                               ; preds = %11
  %17 = load ptr, ptr %3, align 8, !tbaa !8
  %18 = getelementptr inbounds nuw %struct.Vec_Att_t_, ptr %17, i32 0, i32 1
  %19 = load ptr, ptr %18, align 8, !tbaa !35
  %20 = load i32, ptr %4, align 4, !tbaa !27
  %21 = sext i32 %20 to i64
  %22 = mul i64 8, %21
  %23 = call ptr @realloc(ptr noundef %19, i64 noundef %22) #12
  br label %29

24:                                               ; preds = %11
  %25 = load i32, ptr %4, align 4, !tbaa !27
  %26 = sext i32 %25 to i64
  %27 = mul i64 8, %26
  %28 = call noalias ptr @malloc(i64 noundef %27) #10
  br label %29

29:                                               ; preds = %24, %16
  %30 = phi ptr [ %23, %16 ], [ %28, %24 ]
  %31 = load ptr, ptr %3, align 8, !tbaa !8
  %32 = getelementptr inbounds nuw %struct.Vec_Att_t_, ptr %31, i32 0, i32 1
  store ptr %30, ptr %32, align 8, !tbaa !35
  %33 = load ptr, ptr %3, align 8, !tbaa !8
  %34 = getelementptr inbounds nuw %struct.Vec_Att_t_, ptr %33, i32 0, i32 1
  %35 = load ptr, ptr %34, align 8, !tbaa !35
  %36 = load ptr, ptr %3, align 8, !tbaa !8
  %37 = getelementptr inbounds nuw %struct.Vec_Att_t_, ptr %36, i32 0, i32 0
  %38 = load i32, ptr %37, align 8, !tbaa !34
  %39 = sext i32 %38 to i64
  %40 = getelementptr inbounds ptr, ptr %35, i64 %39
  %41 = load i32, ptr %4, align 4, !tbaa !27
  %42 = load ptr, ptr %3, align 8, !tbaa !8
  %43 = getelementptr inbounds nuw %struct.Vec_Att_t_, ptr %42, i32 0, i32 0
  %44 = load i32, ptr %43, align 8, !tbaa !34
  %45 = sub nsw i32 %41, %44
  %46 = sext i32 %45 to i64
  %47 = mul i64 8, %46
  call void @llvm.memset.p0.i64(ptr align 8 %40, i8 0, i64 %47, i1 false)
  %48 = load i32, ptr %4, align 4, !tbaa !27
  %49 = load ptr, ptr %3, align 8, !tbaa !8
  %50 = getelementptr inbounds nuw %struct.Vec_Att_t_, ptr %49, i32 0, i32 0
  store i32 %48, ptr %50, align 8, !tbaa !34
  br label %51

51:                                               ; preds = %29, %10
  ret void
}

; Function Attrs: inlinehint nounwind uwtable
define internal ptr @Vec_AttEntry(ptr noundef %0, i32 noundef %1) #2 {
  %3 = alloca ptr, align 8
  %4 = alloca i32, align 4
  store ptr %0, ptr %3, align 8, !tbaa !8
  store i32 %1, ptr %4, align 4, !tbaa !27
  %5 = load i32, ptr %4, align 4, !tbaa !27
  %6 = load ptr, ptr %3, align 8, !tbaa !8
  %7 = getelementptr inbounds nuw %struct.Vec_Att_t_, ptr %6, i32 0, i32 0
  %8 = load i32, ptr %7, align 8, !tbaa !34
  %9 = icmp sge i32 %5, %8
  br i1 %9, label %10, label %28

10:                                               ; preds = %2
  %11 = load ptr, ptr %3, align 8, !tbaa !8
  %12 = load ptr, ptr %3, align 8, !tbaa !8
  %13 = getelementptr inbounds nuw %struct.Vec_Att_t_, ptr %12, i32 0, i32 0
  %14 = load i32, ptr %13, align 8, !tbaa !34
  %15 = mul nsw i32 2, %14
  %16 = load i32, ptr %4, align 4, !tbaa !27
  %17 = icmp sgt i32 %15, %16
  br i1 %17, label %18, label %23

18:                                               ; preds = %10
  %19 = load ptr, ptr %3, align 8, !tbaa !8
  %20 = getelementptr inbounds nuw %struct.Vec_Att_t_, ptr %19, i32 0, i32 0
  %21 = load i32, ptr %20, align 8, !tbaa !34
  %22 = mul nsw i32 2, %21
  br label %26

23:                                               ; preds = %10
  %24 = load i32, ptr %4, align 4, !tbaa !27
  %25 = add nsw i32 %24, 10
  br label %26

26:                                               ; preds = %23, %18
  %27 = phi i32 [ %22, %18 ], [ %25, %23 ]
  call void @Vec_AttGrow(ptr noundef %11, i32 noundef %27)
  br label %28

28:                                               ; preds = %26, %2
  %29 = load ptr, ptr %3, align 8, !tbaa !8
  %30 = getelementptr inbounds nuw %struct.Vec_Att_t_, ptr %29, i32 0, i32 1
  %31 = load ptr, ptr %30, align 8, !tbaa !35
  %32 = load i32, ptr %4, align 4, !tbaa !27
  %33 = sext i32 %32 to i64
  %34 = getelementptr inbounds ptr, ptr %31, i64 %33
  %35 = load ptr, ptr %34, align 8, !tbaa !28
  %36 = icmp eq ptr %35, null
  br i1 %36, label %37, label %56

37:                                               ; preds = %28
  %38 = load ptr, ptr %3, align 8, !tbaa !8
  %39 = getelementptr inbounds nuw %struct.Vec_Att_t_, ptr %38, i32 0, i32 4
  %40 = load ptr, ptr %39, align 8, !tbaa !32
  %41 = icmp ne ptr %40, null
  br i1 %41, label %42, label %56

42:                                               ; preds = %37
  %43 = load ptr, ptr %3, align 8, !tbaa !8
  %44 = getelementptr inbounds nuw %struct.Vec_Att_t_, ptr %43, i32 0, i32 4
  %45 = load ptr, ptr %44, align 8, !tbaa !32
  %46 = load ptr, ptr %3, align 8, !tbaa !8
  %47 = getelementptr inbounds nuw %struct.Vec_Att_t_, ptr %46, i32 0, i32 2
  %48 = load ptr, ptr %47, align 8, !tbaa !29
  %49 = call ptr %45(ptr noundef %48)
  %50 = load ptr, ptr %3, align 8, !tbaa !8
  %51 = getelementptr inbounds nuw %struct.Vec_Att_t_, ptr %50, i32 0, i32 1
  %52 = load ptr, ptr %51, align 8, !tbaa !35
  %53 = load i32, ptr %4, align 4, !tbaa !27
  %54 = sext i32 %53 to i64
  %55 = getelementptr inbounds ptr, ptr %52, i64 %54
  store ptr %49, ptr %55, align 8, !tbaa !28
  br label %56

56:                                               ; preds = %42, %37, %28
  %57 = load ptr, ptr %3, align 8, !tbaa !8
  %58 = getelementptr inbounds nuw %struct.Vec_Att_t_, ptr %57, i32 0, i32 1
  %59 = load ptr, ptr %58, align 8, !tbaa !35
  %60 = load i32, ptr %4, align 4, !tbaa !27
  %61 = sext i32 %60 to i64
  %62 = getelementptr inbounds ptr, ptr %59, i64 %61
  %63 = load ptr, ptr %62, align 8, !tbaa !28
  ret ptr %63
}

; Function Attrs: inlinehint nounwind uwtable
define internal ptr @Vec_PtrEntry(ptr noundef %0, i32 noundef %1) #2 {
  %3 = alloca ptr, align 8
  %4 = alloca i32, align 4
  store ptr %0, ptr %3, align 8, !tbaa !37
  store i32 %1, ptr %4, align 4, !tbaa !27
  %5 = load ptr, ptr %3, align 8, !tbaa !37
  %6 = getelementptr inbounds nuw %struct.Vec_Ptr_t_, ptr %5, i32 0, i32 2
  %7 = load ptr, ptr %6, align 8, !tbaa !38
  %8 = load i32, ptr %4, align 4, !tbaa !27
  %9 = sext i32 %8 to i64
  %10 = getelementptr inbounds ptr, ptr %7, i64 %9
  %11 = load ptr, ptr %10, align 8, !tbaa !28
  ret ptr %11
}

; Function Attrs: inlinehint nounwind uwtable
define internal ptr @Abc_ObjMvVar(ptr noundef %0) #2 {
  %2 = alloca ptr, align 8
  store ptr %0, ptr %2, align 8, !tbaa !42
  %3 = load ptr, ptr %2, align 8, !tbaa !42
  %4 = getelementptr inbounds nuw %struct.Abc_Obj_t_, ptr %3, i32 0, i32 0
  %5 = load ptr, ptr %4, align 8, !tbaa !44
  %6 = call ptr @Abc_NtkMvVar(ptr noundef %5)
  %7 = icmp ne ptr %6, null
  br i1 %7, label %8, label %17

8:                                                ; preds = %1
  %9 = load ptr, ptr %2, align 8, !tbaa !42
  %10 = getelementptr inbounds nuw %struct.Abc_Obj_t_, ptr %9, i32 0, i32 0
  %11 = load ptr, ptr %10, align 8, !tbaa !44
  %12 = call ptr @Abc_NtkMvVar(ptr noundef %11)
  %13 = load ptr, ptr %2, align 8, !tbaa !42
  %14 = getelementptr inbounds nuw %struct.Abc_Obj_t_, ptr %13, i32 0, i32 2
  %15 = load i32, ptr %14, align 8, !tbaa !52
  %16 = call ptr @Vec_AttEntry(ptr noundef %12, i32 noundef %15)
  br label %18

17:                                               ; preds = %1
  br label %18

18:                                               ; preds = %17, %8
  %19 = phi ptr [ %16, %8 ], [ null, %17 ]
  ret ptr %19
}

; Function Attrs: inlinehint nounwind uwtable
define internal ptr @Abc_NtkMvVar(ptr noundef %0) #2 {
  %2 = alloca ptr, align 8
  store ptr %0, ptr %2, align 8, !tbaa !3
  %3 = load ptr, ptr %2, align 8, !tbaa !3
  %4 = getelementptr inbounds nuw %struct.Abc_Ntk_t_, ptr %3, i32 0, i32 53
  %5 = load ptr, ptr %4, align 8, !tbaa !10
  %6 = call ptr @Vec_PtrEntry(ptr noundef %5, i32 noundef 12)
  ret ptr %6
}

; Function Attrs: inlinehint nounwind uwtable
define internal i32 @Abc_ObjMvVarNum(ptr noundef %0) #2 {
  %2 = alloca ptr, align 8
  store ptr %0, ptr %2, align 8, !tbaa !42
  %3 = load ptr, ptr %2, align 8, !tbaa !42
  %4 = getelementptr inbounds nuw %struct.Abc_Obj_t_, ptr %3, i32 0, i32 0
  %5 = load ptr, ptr %4, align 8, !tbaa !44
  %6 = call ptr @Abc_NtkMvVar(ptr noundef %5)
  %7 = icmp ne ptr %6, null
  br i1 %7, label %8, label %16

8:                                                ; preds = %1
  %9 = load ptr, ptr %2, align 8, !tbaa !42
  %10 = call ptr @Abc_ObjMvVar(ptr noundef %9)
  %11 = icmp ne ptr %10, null
  br i1 %11, label %12, label %16

12:                                               ; preds = %8
  %13 = load ptr, ptr %2, align 8, !tbaa !42
  %14 = call ptr @Abc_ObjMvVar(ptr noundef %13)
  %15 = load i32, ptr %14, align 4, !tbaa !27
  br label %17

16:                                               ; preds = %8, %1
  br label %17

17:                                               ; preds = %16, %12
  %18 = phi i32 [ %15, %12 ], [ 2, %16 ]
  ret i32 %18
}