; Function Attrs: inlinehint nounwind uwtable
define internal fastcc i32 @Abc_ObjMvVarNum(ptr noundef readonly captures(none) %0) unnamed_addr #3 {
  %2 = load ptr, ptr %0, align 8, !tbaa !34
  %3 = getelementptr i8, ptr %2, i64 432
  %.val = load ptr, ptr %3, align 8, !tbaa !31
  %4 = getelementptr i8, ptr %.val, i64 8
  %.val.val = load ptr, ptr %4, align 8, !tbaa !32
  %5 = getelementptr i8, ptr %.val.val, i64 96
  %.val.val.val = load ptr, ptr %5, align 8, !tbaa !33
  %.not = icmp eq ptr %.val.val.val, null
  br i1 %.not, label %Abc_ObjMvVar.exit.thread, label %6

6:                                                ; preds = %1
  %7 = getelementptr inbounds nuw i8, ptr %0, i64 16
  %8 = load i32, ptr %7, align 8, !tbaa !37
  %9 = load i32, ptr %.val.val.val, align 8, !tbaa !29
  %.not.i.i = icmp slt i32 %8, %9
  br i1 %.not.i.i, label %Vec_AttGrow.exit.i.i, label %10

10:                                               ; preds = %6
  %11 = shl nsw i32 %9, 1
  %12 = icmp sgt i32 %11, %8
  %13 = add nsw i32 %8, 10
  %14 = select i1 %12, i32 %11, i32 %13
  %.not.i.i.i = icmp slt i32 %9, %14
  br i1 %.not.i.i.i, label %15, label %Vec_AttGrow.exit.i.i

15:                                               ; preds = %10
  %16 = getelementptr inbounds nuw i8, ptr %.val.val.val, i64 8
  %17 = load ptr, ptr %16, align 8, !tbaa !30
  %.not13.i.i.i = icmp eq ptr %17, null
  %18 = sext i32 %14 to i64
  %19 = shl nsw i64 %18, 3
  br i1 %.not13.i.i.i, label %22, label %20

20:                                               ; preds = %15
  %21 = tail call ptr @realloc(ptr noundef nonnull %17, i64 noundef %19) #16
  %.pre.i.i.i = load i32, ptr %.val.val.val, align 8, !tbaa !29
  br label %24

22:                                               ; preds = %15
  %23 = tail call noalias ptr @malloc(i64 noundef %19) #17
  br label %24

24:                                               ; preds = %22, %20
  %25 = phi i32 [ %.pre.i.i.i, %20 ], [ %9, %22 ]
  %26 = phi ptr [ %21, %20 ], [ %23, %22 ]
  store ptr %26, ptr %16, align 8, !tbaa !30
  %27 = sext i32 %25 to i64
  %28 = getelementptr inbounds ptr, ptr %26, i64 %27
  %29 = sub nsw i32 %14, %25
  %30 = sext i32 %29 to i64
  %31 = shl nsw i64 %30, 3
  tail call void @llvm.memset.p0.i64(ptr align 8 %28, i8 0, i64 %31, i1 false)
  store i32 %14, ptr %.val.val.val, align 8, !tbaa !29
  br label %Vec_AttGrow.exit.i.i

Vec_AttGrow.exit.i.i:                             ; preds = %24, %10, %6
  %32 = getelementptr inbounds nuw i8, ptr %.val.val.val, i64 8
  %33 = load ptr, ptr %32, align 8, !tbaa !30
  %34 = sext i32 %8 to i64
  %35 = getelementptr inbounds ptr, ptr %33, i64 %34
  %36 = load ptr, ptr %35, align 8, !tbaa !33
  %37 = icmp eq ptr %36, null
  br i1 %37, label %38, label %Abc_ObjMvVar.exit.thread19

38:                                               ; preds = %Vec_AttGrow.exit.i.i
  %39 = getelementptr inbounds nuw i8, ptr %.val.val.val, i64 32
  %40 = load ptr, ptr %39, align 8, !tbaa !38
  %.not18.i.i = icmp eq ptr %40, null
  br i1 %.not18.i.i, label %Abc_ObjMvVar.exit.thread, label %Abc_ObjMvVar.exit

Abc_ObjMvVar.exit:                                ; preds = %38
  %41 = getelementptr inbounds nuw i8, ptr %.val.val.val, i64 16
  %42 = load ptr, ptr %41, align 8, !tbaa !26
  %43 = tail call ptr %40(ptr noundef %42) #15
  %44 = load ptr, ptr %32, align 8, !tbaa !30
  %45 = getelementptr inbounds ptr, ptr %44, i64 %34
  store ptr %43, ptr %45, align 8, !tbaa !33
  %.pre.i.i = load ptr, ptr %32, align 8, !tbaa !30
  %.phi.trans.insert.i.i = getelementptr inbounds ptr, ptr %.pre.i.i, i64 %34
  %.pre19.i.i = load ptr, ptr %.phi.trans.insert.i.i, align 8, !tbaa !33
  %.not3 = icmp eq ptr %.pre19.i.i, null
  br i1 %.not3, label %Abc_ObjMvVar.exit.thread, label %Abc_ObjMvVar.exit.thread19

Abc_ObjMvVar.exit.thread19:                       ; preds = %Vec_AttGrow.exit.i.i, %Abc_ObjMvVar.exit
  %46 = load ptr, ptr %0, align 8, !tbaa !34
  %47 = getelementptr i8, ptr %46, i64 432
  %.val.i4 = load ptr, ptr %47, align 8, !tbaa !31
  %48 = getelementptr i8, ptr %.val.i4, i64 8
  %.val.val.i5 = load ptr, ptr %48, align 8, !tbaa !32
  %49 = getelementptr i8, ptr %.val.val.i5, i64 96
  %.val.val.val.i6 = load ptr, ptr %49, align 8, !tbaa !33, !nonnull !61, !noundef !61
  %50 = load i32, ptr %7, align 8, !tbaa !37
  %51 = load i32, ptr %.val.val.val.i6, align 8, !tbaa !29
  %.not.i.i8 = icmp slt i32 %50, %51
  br i1 %.not.i.i8, label %Vec_AttGrow.exit.i.i10, label %52

52:                                               ; preds = %Abc_ObjMvVar.exit.thread19
  %53 = shl nsw i32 %51, 1
  %54 = icmp sgt i32 %53, %50
  %55 = add nsw i32 %50, 10
  %56 = select i1 %54, i32 %53, i32 %55
  %.not.i.i.i9 = icmp slt i32 %51, %56
  br i1 %.not.i.i.i9, label %57, label %Vec_AttGrow.exit.i.i10

57:                                               ; preds = %52
  %58 = getelementptr inbounds nuw i8, ptr %.val.val.val.i6, i64 8
  %59 = load ptr, ptr %58, align 8, !tbaa !30
  %.not13.i.i.i15 = icmp eq ptr %59, null
  %60 = sext i32 %56 to i64
  %61 = shl nsw i64 %60, 3
  br i1 %.not13.i.i.i15, label %64, label %62

62:                                               ; preds = %57
  %63 = tail call ptr @realloc(ptr noundef nonnull %59, i64 noundef %61) #16
  %.pre.i.i.i16 = load i32, ptr %.val.val.val.i6, align 8, !tbaa !29
  br label %66

64:                                               ; preds = %57
  %65 = tail call noalias ptr @malloc(i64 noundef %61) #17
  br label %66

66:                                               ; preds = %64, %62
  %67 = phi i32 [ %.pre.i.i.i16, %62 ], [ %51, %64 ]
  %68 = phi ptr [ %63, %62 ], [ %65, %64 ]
  store ptr %68, ptr %58, align 8, !tbaa !30
  %69 = sext i32 %67 to i64
  %70 = getelementptr inbounds ptr, ptr %68, i64 %69
  %71 = sub nsw i32 %56, %67
  %72 = sext i32 %71 to i64
  %73 = shl nsw i64 %72, 3
  tail call void @llvm.memset.p0.i64(ptr align 8 %70, i8 0, i64 %73, i1 false)
  store i32 %56, ptr %.val.val.val.i6, align 8, !tbaa !29
  br label %Vec_AttGrow.exit.i.i10

Vec_AttGrow.exit.i.i10:                           ; preds = %66, %52, %Abc_ObjMvVar.exit.thread19
  %74 = getelementptr inbounds nuw i8, ptr %.val.val.val.i6, i64 8
  %75 = load ptr, ptr %74, align 8, !tbaa !30
  %76 = sext i32 %50 to i64
  %77 = getelementptr inbounds ptr, ptr %75, i64 %76
  %78 = load ptr, ptr %77, align 8, !tbaa !33
  %79 = icmp eq ptr %78, null
  br i1 %79, label %80, label %Abc_ObjMvVar.exit17

80:                                               ; preds = %Vec_AttGrow.exit.i.i10
  %81 = getelementptr inbounds nuw i8, ptr %.val.val.val.i6, i64 32
  %82 = load ptr, ptr %81, align 8, !tbaa !38, !nonnull !61, !noundef !61
  %83 = getelementptr inbounds nuw i8, ptr %.val.val.val.i6, i64 16
  %84 = load ptr, ptr %83, align 8, !tbaa !26
  %85 = tail call ptr %82(ptr noundef %84) #15
  %86 = load ptr, ptr %74, align 8, !tbaa !30
  %87 = getelementptr inbounds ptr, ptr %86, i64 %76
  store ptr %85, ptr %87, align 8, !tbaa !33
  %.pre.i.i12 = load ptr, ptr %74, align 8, !tbaa !30
  %.phi.trans.insert.i.i13 = getelementptr inbounds ptr, ptr %.pre.i.i12, i64 %76
  %.pre19.i.i14 = load ptr, ptr %.phi.trans.insert.i.i13, align 8, !tbaa !33
  br label %Abc_ObjMvVar.exit17

Abc_ObjMvVar.exit17:                              ; preds = %Vec_AttGrow.exit.i.i10, %80
  %88 = phi ptr [ %.pre19.i.i14, %80 ], [ %78, %Vec_AttGrow.exit.i.i10 ]
  %89 = load i32, ptr %88, align 4, !tbaa !44
  br label %Abc_ObjMvVar.exit.thread

Abc_ObjMvVar.exit.thread:                         ; preds = %38, %1, %Abc_ObjMvVar.exit, %Abc_ObjMvVar.exit17
  %90 = phi i32 [ %89, %Abc_ObjMvVar.exit17 ], [ 2, %Abc_ObjMvVar.exit ], [ 2, %1 ], [ 2, %38 ]
  ret i32 %90
}